target datalayout = "e-m:e-p270:32:32-p271:32:32-p272:64:64-i64:64-i128:128-f80:128-n8:16:32:64-S128"
target triple = "x86_64-pc-linux-gnu"

%"struct.tbb::detail::d1::intrusive_list_node" = type { ptr, ptr }
%"struct.std::atomic.2" = type { %"struct.std::__atomic_base.3" }
%"struct.std::__atomic_base.3" = type { i32 }
%"class.tbb::detail::r1::thread_dispatcher_client" = type { %"struct.tbb::detail::d1::intrusive_list_node", ptr, i64 }
%"class.tbb::detail::r1::thread_data" = type { %"struct.tbb::detail::d1::intrusive_list_node", i16, i8, i8, ptr, ptr, ptr, ptr, %"class.tbb::detail::r1::mail_inbox", %"class.tbb::detail::r1::FastRandom", ptr, ptr, ptr, i32, ptr, %"class.tbb::detail::d1::task_group_context" }
%"class.tbb::detail::r1::mail_inbox" = type { ptr }
%"class.tbb::detail::r1::FastRandom" = type { i32, i32 }
%"class.tbb::detail::d1::task_group_context" = type { i64, %"struct.std::atomic.2", i8, %"struct.tbb::detail::d1::task_group_context::context_traits", %"struct.std::atomic.19", %"struct.std::atomic.21", %union.anon, ptr, %"struct.tbb::detail::d1::intrusive_list_node", %"struct.std::atomic.22", ptr, i64, [56 x i8] }
%"struct.tbb::detail::d1::task_group_context::context_traits" = type { i8 }
%"struct.std::atomic.19" = type { %"struct.std::__atomic_base.20" }
%"struct.std::__atomic_base.20" = type { i8 }
%"struct.std::atomic.21" = type { i8 }
%union.anon = type { ptr }
%"struct.std::atomic.22" = type { %"struct.std::__atomic_base.23" }
%"struct.std::__atomic_base.23" = type { ptr }

; Function Attrs: noinline noreturn nounwind sspstrong uwtable
define linkonce_odr hidden void @__clang_call_terminate(ptr noundef %0) #5 comdat {
  %2 = call ptr @__cxa_begin_catch(ptr %0) #11
  call void @_ZSt9terminatev() #14
  unreachable
}

; Function Attrs: inlinehint mustprogress nounwind sspstrong uwtable
define internal noundef i32 @_ZL15__gthread_yieldv() #1 {
  %1 = call i32 @sched_yield() #11
  ret i32 %1
}

; Function Attrs: inlinehint mustprogress nounwind sspstrong uwtable
define linkonce_odr void @_ZNSt11this_thread5yieldEv() #1 comdat personality ptr @__gxx_personality_v0 {
  %1 = invoke noundef i32 @_ZL15__gthread_yieldv()
          to label %2 unwind label %3

2:                                                ; preds = %0
  ret void

3:                                                ; preds = %0
  %4 = landingpad { ptr, i32 }
          catch ptr null
  %5 = extractvalue { ptr, i32 } %4, 0
  call void @__clang_call_terminate(ptr %5) #14
  unreachable
}

; Function Attrs: mustprogress sspstrong uwtable
define linkonce_odr void @_ZN3tbb6detail2r124thread_dispatcher_client7processERNS1_11thread_dataE(ptr noundef nonnull align 8 dereferenceable(32) %0, ptr noundef nonnull align 8 dereferenceable(240) %1) #0 comdat align 2 {
  %3 = alloca ptr, align 8
  %4 = alloca ptr, align 8
  store ptr %0, ptr %3, align 8, !tbaa !48
  store ptr %1, ptr %4, align 8, !tbaa !89
  %5 = load ptr, ptr %3, align 8
  %6 = getelementptr inbounds nuw %"class.tbb::detail::r1::thread_dispatcher_client", ptr %5, i32 0, i32 1
  %7 = load ptr, ptr %6, align 8, !tbaa !51
  %8 = load ptr, ptr %4, align 8, !tbaa !89
  call void @_ZN3tbb6detail2r15arena7processERNS1_11thread_dataE(ptr noundef nonnull align 128 dereferenceable(768) %7, ptr noundef nonnull align 8 dereferenceable(240) %8)
  ret void
}

; Function Attrs: mustprogress sspstrong uwtable
define void @_ZN3tbb6detail2r117thread_dispatcher7processERN3rml3jobE(ptr noundef nonnull align 8 dereferenceable(152) %0, ptr noundef nonnull align 1 dereferenceable(1) %1) unnamed_addr #0 align 2 {
  %3 = alloca ptr, align 8
  %4 = alloca ptr, align 8
  %5 = alloca ptr, align 8
  %6 = alloca ptr, align 8
  %7 = alloca i32, align 4
  store ptr %0, ptr %3, align 8, !tbaa !3
  store ptr %1, ptr %4, align 8, !tbaa !87
  %8 = load ptr, ptr %3, align 8
  call void @llvm.lifetime.start.p0(i64 8, ptr %5) #11
  %9 = load ptr, ptr %4, align 8, !tbaa !87
  store ptr %9, ptr %5, align 8, !tbaa !89
  call void @llvm.lifetime.start.p0(i64 8, ptr %6) #11
  %10 = load ptr, ptr %5, align 8, !tbaa !89
  %11 = getelementptr inbounds nuw %"class.tbb::detail::r1::thread_data", ptr %10, i32 0, i32 6
  %12 = load ptr, ptr %11, align 8, !tbaa !91
  store ptr %12, ptr %6, align 8, !tbaa !48
  call void @llvm.lifetime.start.p0(i64 4, ptr %7) #11
  store i32 0, ptr %7, align 4, !tbaa !10
  br label %13

13:                                               ; preds = %33, %2
  %14 = load i32, ptr %7, align 4, !tbaa !10
  %15 = icmp slt i32 %14, 2
  br i1 %15, label %17, label %16

16:                                               ; preds = %13
  call void @llvm.lifetime.end.p0(i64 4, ptr %7) #11
  br label %36

17:                                               ; preds = %13
  br label %18

18:                                               ; preds = %22, %17
  %19 = load ptr, ptr %6, align 8, !tbaa !48
  %20 = call noundef ptr @_ZN3tbb6detail2r117thread_dispatcher14client_in_needEPNS1_24thread_dispatcher_clientE(ptr noundef nonnull align 8 dereferenceable(152) %8, ptr noundef %19)
  store ptr %20, ptr %6, align 8, !tbaa !48
  %21 = icmp ne ptr %20, null
  br i1 %21, label %22, label %28

22:                                               ; preds = %18
  %23 = load ptr, ptr %6, align 8, !tbaa !48
  %24 = load ptr, ptr %5, align 8, !tbaa !89
  %25 = getelementptr inbounds nuw %"class.tbb::detail::r1::thread_data", ptr %24, i32 0, i32 6
  store ptr %23, ptr %25, align 8, !tbaa !91
  %26 = load ptr, ptr %6, align 8, !tbaa !48
  %27 = load ptr, ptr %5, align 8, !tbaa !89
  call void @_ZN3tbb6detail2r124thread_dispatcher_client7processERNS1_11thread_dataE(ptr noundef nonnull align 8 dereferenceable(32) %26, ptr noundef nonnull align 8 dereferenceable(240) %27)
  br label %18, !llvm.loop !114

28:                                               ; preds = %18
  %29 = load i32, ptr %7, align 4, !tbaa !10
  %30 = icmp ne i32 %29, 0
  br i1 %30, label %32, label %31

31:                                               ; preds = %28
  call void @_ZNSt11this_thread5yieldEv() #11
  br label %32

32:                                               ; preds = %31, %28
  br label %33

33:                                               ; preds = %32
  %34 = load i32, ptr %7, align 4, !tbaa !10
  %35 = add nsw i32 %34, 1
  store i32 %35, ptr %7, align 4, !tbaa !10
  br label %13, !llvm.loop !115

36:                                               ; preds = %16
  call void @llvm.lifetime.end.p0(i64 8, ptr %6) #11
  call void @llvm.lifetime.end.p0(i64 8, ptr %5) #11
  ret void
}