; Function Attrs: mustprogress sspstrong uwtable
define void @_ZN3tbb6detail2r117thread_dispatcher7processERN3rml3jobE(ptr noundef nonnull align 8 dereferenceable(152) %0, ptr noundef nonnull align 1 dereferenceable(1) %1) unnamed_addr #0 align 2 personality ptr @__gxx_personality_v0 {
  %3 = getelementptr inbounds nuw i8, ptr %1, i64 40
  %4 = load ptr, ptr %3, align 8, !tbaa !94
  br label %.preheader

.preheader:                                       ; preds = %11, %2
  %.not13 = phi i1 [ true, %2 ], [ false, %11 ]
  %.01015 = phi ptr [ %4, %2 ], [ null, %11 ]
  %5 = tail call noundef ptr @_ZN3tbb6detail2r117thread_dispatcher14client_in_needEPNS1_24thread_dispatcher_clientE(ptr noundef nonnull align 8 dereferenceable(152) %0, ptr noundef %.01015)
  %.not14 = icmp eq ptr %5, null
  br i1 %.not14, label %._crit_edge, label %.lr.ph

6:                                                ; preds = %._crit_edge
  ret void

.lr.ph:                                           ; preds = %.preheader, %.lr.ph
  %7 = phi ptr [ %10, %.lr.ph ], [ %5, %.preheader ]
  store ptr %7, ptr %3, align 8, !tbaa !94
  %8 = getelementptr inbounds nuw i8, ptr %7, i64 16
  %9 = load ptr, ptr %8, align 8, !tbaa !39
  tail call void @_ZN3tbb6detail2r15arena7processERNS1_11thread_dataE(ptr noundef nonnull align 128 dereferenceable(768) %9, ptr noundef nonnull align 8 dereferenceable(240) %1)
  %10 = tail call noundef ptr @_ZN3tbb6detail2r117thread_dispatcher14client_in_needEPNS1_24thread_dispatcher_clientE(ptr noundef nonnull align 8 dereferenceable(152) %0, ptr noundef nonnull %7)
  %.not = icmp eq ptr %10, null
  br i1 %.not, label %._crit_edge, label %.lr.ph, !llvm.loop !116

._crit_edge:                                      ; preds = %.lr.ph, %.preheader
  br i1 %.not13, label %11, label %6

11:                                               ; preds = %._crit_edge
  %12 = tail call noundef i32 @sched_yield() #11
  br label %.preheader, !llvm.loop !117
}